target datalayout = "e-m:e-p270:32:32-p271:32:32-p272:64:64-i64:64-i128:128-f80:128-n8:16:32:64-S128"
target triple = "x86_64-pc-linux-gnu"

%"class.ozz::options::TypedOption" = type <{ %"class.ozz::options::Option", i8, i8, [6 x i8] }>
%"class.ozz::options::Option" = type { ptr, ptr, ptr, i8, i8, ptr }
%"class.ozz::options::Parser" = type { [32 x ptr], i32, i32, ptr, ptr, ptr, ptr, ptr, %"class.ozz::options::TypedOption", %"class.ozz::options::TypedOption" }

@.str.27 = private unnamed_addr constant [18 x i8] c"unspecified usage\00", align 1
@.str.28 = private unnamed_addr constant [20 x i8] c"unspecified version\00", align 1
@_ZN3ozz7options8internal12_GLOBAL__N_115GlobalRegistrer7parser_E = internal global ptr null, align 8
@_ZN3ozz7options8internal12_GLOBAL__N_115GlobalRegistrer12placeholder_E = internal global [50 x ptr] zeroinitializer, align 16
@_ZN3ozz7options6ParserC1Ev = dso_local unnamed_addr alias void (ptr), ptr @_ZN3ozz7options6ParserC2Ev

; Function Attrs: mustprogress nounwind uwtable
define dso_local void @_ZN3ozz7options6Parser11set_versionEPKc(ptr noundef nonnull align 8 dereferenceable(400) %0, ptr noundef %1) #6 align 2 {
  %3 = alloca ptr, align 8
  %4 = alloca ptr, align 8
  store ptr %0, ptr %3, align 8, !tbaa !24
  store ptr %1, ptr %4, align 8, !tbaa !9
  %5 = load ptr, ptr %3, align 8
  %6 = load ptr, ptr %4, align 8, !tbaa !9
  %7 = icmp ne ptr %6, null
  br i1 %7, label %8, label %10

8:                                                ; preds = %2
  %9 = load ptr, ptr %4, align 8, !tbaa !9
  br label %11

10:                                               ; preds = %2
  br label %11

11:                                               ; preds = %10, %8
  %12 = phi ptr [ %9, %8 ], [ @.str.28, %10 ]
  %13 = getelementptr inbounds nuw %"class.ozz::options::Parser", ptr %5, i32 0, i32 6
  store ptr %12, ptr %13, align 8, !tbaa !100
  ret void
}

; Function Attrs: mustprogress nounwind uwtable
define dso_local void @_ZN3ozz7options6Parser9set_usageEPKc(ptr noundef nonnull align 8 dereferenceable(400) %0, ptr noundef %1) #6 align 2 {
  %3 = alloca ptr, align 8
  %4 = alloca ptr, align 8
  store ptr %0, ptr %3, align 8, !tbaa !24
  store ptr %1, ptr %4, align 8, !tbaa !9
  %5 = load ptr, ptr %3, align 8
  %6 = load ptr, ptr %4, align 8, !tbaa !9
  %7 = icmp ne ptr %6, null
  br i1 %7, label %8, label %10

8:                                                ; preds = %2
  %9 = load ptr, ptr %4, align 8, !tbaa !9
  br label %11

10:                                               ; preds = %2
  br label %11

11:                                               ; preds = %10, %8
  %12 = phi ptr [ %9, %8 ], [ @.str.27, %10 ]
  %13 = getelementptr inbounds nuw %"class.ozz::options::Parser", ptr %5, i32 0, i32 7
  store ptr %12, ptr %13, align 8, !tbaa !99
  ret void
}

; Function Attrs: mustprogress uwtable
define internal noundef ptr @_ZN3ozz7options8internal12_GLOBAL__N_115GlobalRegistrer9ConstructEv() #4 align 2 {
  %1 = load ptr, ptr @_ZN3ozz7options8internal12_GLOBAL__N_115GlobalRegistrer7parser_E, align 8, !tbaa !24
  %2 = icmp ne ptr %1, null
  br i1 %2, label %4, label %3

3:                                                ; preds = %0
  call void @_ZN3ozz7options6ParserC1Ev(ptr noundef nonnull align 8 dereferenceable(400) @_ZN3ozz7options8internal12_GLOBAL__N_115GlobalRegistrer12placeholder_E)
  store ptr @_ZN3ozz7options8internal12_GLOBAL__N_115GlobalRegistrer12placeholder_E, ptr @_ZN3ozz7options8internal12_GLOBAL__N_115GlobalRegistrer7parser_E, align 8, !tbaa !24
  br label %4

4:                                                ; preds = %3, %0
  %5 = load ptr, ptr @_ZN3ozz7options8internal12_GLOBAL__N_115GlobalRegistrer7parser_E, align 8, !tbaa !24
  ret ptr %5
}

; Function Attrs: mustprogress uwtable
define dso_local noundef i32 @_ZN3ozz7options16ParseCommandLineEiPKPKcS2_S2_(i32 noundef %0, ptr noundef %1, ptr noundef %2, ptr noundef %3) #4 {
  %5 = alloca i32, align 4
  %6 = alloca ptr, align 8
  %7 = alloca ptr, align 8
  %8 = alloca ptr, align 8
  %9 = alloca ptr, align 8
  store i32 %0, ptr %5, align 4, !tbaa !32
  store ptr %1, ptr %6, align 8, !tbaa !94
  store ptr %2, ptr %7, align 8, !tbaa !9
  store ptr %3, ptr %8, align 8, !tbaa !9
  call void @llvm.lifetime.start.p0(i64 8, ptr %9) #3
  %10 = call noundef ptr @_ZN3ozz7options8internal12_GLOBAL__N_115GlobalRegistrer9ConstructEv()
  store ptr %10, ptr %9, align 8, !tbaa !24
  %11 = load ptr, ptr %9, align 8, !tbaa !24
  %12 = load ptr, ptr %8, align 8, !tbaa !9
  call void @_ZN3ozz7options6Parser9set_usageEPKc(ptr noundef nonnull align 8 dereferenceable(400) %11, ptr noundef %12)
  %13 = load ptr, ptr %9, align 8, !tbaa !24
  %14 = load ptr, ptr %7, align 8, !tbaa !9
  call void @_ZN3ozz7options6Parser11set_versionEPKc(ptr noundef nonnull align 8 dereferenceable(400) %13, ptr noundef %14)
  %15 = load ptr, ptr %9, align 8, !tbaa !24
  %16 = load i32, ptr %5, align 4, !tbaa !32
  %17 = load ptr, ptr %6, align 8, !tbaa !94
  %18 = call noundef i32 @_ZN3ozz7options6Parser5ParseEiPKPKc(ptr noundef nonnull align 8 dereferenceable(400) %15, i32 noundef %16, ptr noundef %17)
  call void @llvm.lifetime.end.p0(i64 8, ptr %9) #3
  ret i32 %18
}