; Function Attrs: mustprogress uwtable
define dso_local noundef range(i32 0, 3) i32 @_ZN3ozz7options16ParseCommandLineEiPKPKcS2_S2_(i32 noundef %0, ptr noundef %1, ptr noundef %2, ptr noundef %3) local_unnamed_addr #3 personality ptr @__gxx_personality_v0 {
  %5 = load ptr, ptr @_ZN3ozz7options8internal12_GLOBAL__N_115GlobalRegistrer7parser_E, align 8, !tbaa !20
  %.not.i = icmp eq ptr %5, null
  br i1 %.not.i, label %6, label %_ZN3ozz7options8internal12_GLOBAL__N_115GlobalRegistrer9ConstructEv.exit

6:                                                ; preds = %4
  store i32 0, ptr getelementptr inbounds nuw (i8, ptr @_ZN3ozz7options8internal12_GLOBAL__N_115GlobalRegistrer12placeholder_E, i64 256), align 16, !tbaa !22
  store i32 0, ptr getelementptr inbounds nuw (i8, ptr @_ZN3ozz7options8internal12_GLOBAL__N_115GlobalRegistrer12placeholder_E, i64 260), align 4, !tbaa !25
  store ptr @.str.3, ptr getelementptr inbounds nuw (i8, ptr @_ZN3ozz7options8internal12_GLOBAL__N_115GlobalRegistrer12placeholder_E, i64 264), align 8, !tbaa !26
  store ptr getelementptr inbounds nuw (i8, ptr @.str.3, i64 1), ptr getelementptr inbounds nuw (i8, ptr @_ZN3ozz7options8internal12_GLOBAL__N_115GlobalRegistrer12placeholder_E, i64 272), align 16, !tbaa !27
  store ptr @.str.3, ptr getelementptr inbounds nuw (i8, ptr @_ZN3ozz7options8internal12_GLOBAL__N_115GlobalRegistrer12placeholder_E, i64 280), align 8, !tbaa !28
  tail call void @llvm.memset.p0.i64(ptr noundef nonnull align 16 dereferenceable(16) getelementptr inbounds nuw (i8, ptr @_ZN3ozz7options8internal12_GLOBAL__N_115GlobalRegistrer12placeholder_E, i64 288), i8 0, i64 16, i1 false)
  tail call void @_ZN3ozz7options11TypedOptionIbEC1EPKcS4_bbPFbRKNS0_6OptionEiE(ptr noundef nonnull align 8 dereferenceable(42) getelementptr inbounds nuw (i8, ptr @_ZN3ozz7options8internal12_GLOBAL__N_115GlobalRegistrer12placeholder_E, i64 304), ptr noundef nonnull @.str.5, ptr noundef nonnull @.str.6, i1 noundef zeroext false, i1 noundef zeroext false, ptr noundef nonnull @_ZN3ozz7options12_GLOBAL__N_123ValidateExclusiveOptionERKNS0_6OptionEi)
  invoke void @_ZN3ozz7options11TypedOptionIbEC1EPKcS4_bbPFbRKNS0_6OptionEiE(ptr noundef nonnull align 8 dereferenceable(42) getelementptr inbounds nuw (i8, ptr @_ZN3ozz7options8internal12_GLOBAL__N_115GlobalRegistrer12placeholder_E, i64 352), ptr noundef nonnull @.str.7, ptr noundef nonnull @.str.8, i1 noundef zeroext false, i1 noundef zeroext false, ptr noundef nonnull @_ZN3ozz7options12_GLOBAL__N_123ValidateExclusiveOptionERKNS0_6OptionEi)
          to label %7 unwind label %11

7:                                                ; preds = %6
  store ptr @.str.28, ptr getelementptr inbounds nuw (i8, ptr @_ZN3ozz7options8internal12_GLOBAL__N_115GlobalRegistrer12placeholder_E, i64 288), align 16, !tbaa !29
  store ptr @.str.27, ptr getelementptr inbounds nuw (i8, ptr @_ZN3ozz7options8internal12_GLOBAL__N_115GlobalRegistrer12placeholder_E, i64 296), align 8, !tbaa !30
  %8 = invoke noundef zeroext i1 @_ZN3ozz7options6Parser14RegisterOptionEPNS0_6OptionE(ptr noundef nonnull align 8 dereferenceable(400) @_ZN3ozz7options8internal12_GLOBAL__N_115GlobalRegistrer12placeholder_E, ptr noundef nonnull getelementptr inbounds nuw (i8, ptr @_ZN3ozz7options8internal12_GLOBAL__N_115GlobalRegistrer12placeholder_E, i64 304))
          to label %9 unwind label %13

9:                                                ; preds = %7
  %10 = invoke noundef zeroext i1 @_ZN3ozz7options6Parser14RegisterOptionEPNS0_6OptionE(ptr noundef nonnull align 8 dereferenceable(400) @_ZN3ozz7options8internal12_GLOBAL__N_115GlobalRegistrer12placeholder_E, ptr noundef nonnull getelementptr inbounds nuw (i8, ptr @_ZN3ozz7options8internal12_GLOBAL__N_115GlobalRegistrer12placeholder_E, i64 352))
          to label %_ZN3ozz7options6ParserC2Ev.exit.i unwind label %13

11:                                               ; preds = %6
  %12 = landingpad { ptr, i32 }
          cleanup
  br label %15

13:                                               ; preds = %9, %7
  %14 = landingpad { ptr, i32 }
          cleanup
  tail call void @_ZN3ozz7options11TypedOptionIbED1Ev(ptr noundef nonnull align 8 dereferenceable(42) getelementptr inbounds nuw (i8, ptr @_ZN3ozz7options8internal12_GLOBAL__N_115GlobalRegistrer12placeholder_E, i64 352)) #29
  br label %15

15:                                               ; preds = %13, %11
  %.pn.i.i = phi { ptr, i32 } [ %14, %13 ], [ %12, %11 ]
  tail call void @_ZN3ozz7options11TypedOptionIbED1Ev(ptr noundef nonnull align 8 dereferenceable(42) getelementptr inbounds nuw (i8, ptr @_ZN3ozz7options8internal12_GLOBAL__N_115GlobalRegistrer12placeholder_E, i64 304)) #29
  resume { ptr, i32 } %.pn.i.i

_ZN3ozz7options6ParserC2Ev.exit.i:                ; preds = %9
  %16 = load i32, ptr getelementptr inbounds nuw (i8, ptr @_ZN3ozz7options8internal12_GLOBAL__N_115GlobalRegistrer12placeholder_E, i64 256), align 16, !tbaa !22
  store i32 %16, ptr getelementptr inbounds nuw (i8, ptr @_ZN3ozz7options8internal12_GLOBAL__N_115GlobalRegistrer12placeholder_E, i64 260), align 4, !tbaa !25
  store ptr @_ZN3ozz7options8internal12_GLOBAL__N_115GlobalRegistrer12placeholder_E, ptr @_ZN3ozz7options8internal12_GLOBAL__N_115GlobalRegistrer7parser_E, align 8, !tbaa !20
  br label %_ZN3ozz7options8internal12_GLOBAL__N_115GlobalRegistrer9ConstructEv.exit

_ZN3ozz7options8internal12_GLOBAL__N_115GlobalRegistrer9ConstructEv.exit: ; preds = %4, %_ZN3ozz7options6ParserC2Ev.exit.i
  %17 = phi ptr [ @_ZN3ozz7options8internal12_GLOBAL__N_115GlobalRegistrer12placeholder_E, %_ZN3ozz7options6ParserC2Ev.exit.i ], [ %5, %4 ]
  %.not.i6 = icmp eq ptr %3, null
  %18 = select i1 %.not.i6, ptr @.str.27, ptr %3
  %19 = getelementptr inbounds nuw i8, ptr %17, i64 296
  store ptr %18, ptr %19, align 8, !tbaa !30
  %.not.i7 = icmp eq ptr %2, null
  %20 = select i1 %.not.i7, ptr @.str.28, ptr %2
  %21 = getelementptr inbounds nuw i8, ptr %17, i64 288
  store ptr %20, ptr %21, align 8, !tbaa !29
  %22 = tail call noundef i32 @_ZN3ozz7options6Parser5ParseEiPKPKc(ptr noundef nonnull align 8 dereferenceable(400) %17, i32 noundef %0, ptr noundef %1)
  ret i32 %22
}